target datalayout = "e-m:e-p270:32:32-p271:32:32-p272:64:64-i64:64-i128:128-f80:128-n8:16:32:64-S128"
target triple = "x86_64-unknown-linux-gnu"

%"struct.icu_75::SPUString" = type <{ %"class.icu_75::LocalPointer", i32, [4 x i8] }>
%"class.icu_75::LocalPointer" = type { %"class.icu_75::LocalPointerBase" }
%"class.icu_75::LocalPointerBase" = type { ptr }

; Function Attrs: mustprogress nounwind uwtable
define linkonce_odr void @_ZN6icu_7516LocalPointerBaseINS_13UnicodeStringEEC2EPS1_(ptr noundef nonnull align 8 dereferenceable(8) %this, ptr noundef %p) unnamed_addr #1 comdat align 2 {
entry:
  %this.addr = alloca ptr, align 8
  %p.addr = alloca ptr, align 8
  store ptr %this, ptr %this.addr, align 8
  store ptr %p, ptr %p.addr, align 8
  %this1 = load ptr, ptr %this.addr, align 8
  %ptr = getelementptr inbounds %"class.icu_75::LocalPointerBase", ptr %this1, i32 0, i32 0
  %0 = load ptr, ptr %p.addr, align 8
  store ptr %0, ptr %ptr, align 8
  ret void
}

; Function Attrs: mustprogress nounwind uwtable
define linkonce_odr noundef nonnull align 8 dereferenceable(8) ptr @_ZN6icu_7512LocalPointerINS_13UnicodeStringEEaSEOS2_(ptr noundef nonnull align 8 dereferenceable(8) %this, ptr noundef nonnull align 8 dereferenceable(8) %src) #1 comdat align 2 {
entry:
  %this.addr = alloca ptr, align 8
  %src.addr = alloca ptr, align 8
  store ptr %this, ptr %this.addr, align 8
  store ptr %src, ptr %src.addr, align 8
  %this1 = load ptr, ptr %this.addr, align 8
  %ptr = getelementptr inbounds %"class.icu_75::LocalPointerBase", ptr %this1, i32 0, i32 0
  %0 = load ptr, ptr %ptr, align 8
  %isnull = icmp eq ptr %0, null
  br i1 %isnull, label %delete.end, label %delete.notnull

delete.notnull:                                   ; preds = %entry
  %vtable = load ptr, ptr %0, align 8
  %vfn = getelementptr inbounds ptr, ptr %vtable, i64 1
  %1 = load ptr, ptr %vfn, align 8
  call void %1(ptr noundef nonnull align 8 dereferenceable(64) %0) #6
  br label %delete.end

delete.end:                                       ; preds = %delete.notnull, %entry
  %2 = load ptr, ptr %src.addr, align 8
  %ptr2 = getelementptr inbounds %"class.icu_75::LocalPointerBase", ptr %2, i32 0, i32 0
  %3 = load ptr, ptr %ptr2, align 8
  %ptr3 = getelementptr inbounds %"class.icu_75::LocalPointerBase", ptr %this1, i32 0, i32 0
  store ptr %3, ptr %ptr3, align 8
  %4 = load ptr, ptr %src.addr, align 8
  %ptr4 = getelementptr inbounds %"class.icu_75::LocalPointerBase", ptr %4, i32 0, i32 0
  store ptr null, ptr %ptr4, align 8
  ret ptr %this1
}

; Function Attrs: mustprogress uwtable
define linkonce_odr void @_ZN6icu_7512LocalPointerINS_13UnicodeStringEEC2EPS1_(ptr noundef nonnull align 8 dereferenceable(8) %this, ptr noundef %p) unnamed_addr #0 comdat align 2 {
entry:
  %this.addr = alloca ptr, align 8
  %p.addr = alloca ptr, align 8
  store ptr %this, ptr %this.addr, align 8
  store ptr %p, ptr %p.addr, align 8
  %this1 = load ptr, ptr %this.addr, align 8
  %0 = load ptr, ptr %p.addr, align 8
  call void @_ZN6icu_7516LocalPointerBaseINS_13UnicodeStringEEC2EPS1_(ptr noundef nonnull align 8 dereferenceable(8) %this1, ptr noundef %0)
  ret void
}

; Function Attrs: mustprogress uwtable
define void @_ZN6icu_759SPUStringC2ENS_12LocalPointerINS_13UnicodeStringEEE(ptr noundef nonnull align 8 dereferenceable(12) %this, ptr noundef %s) unnamed_addr #0 align 2 {
entry:
  %this.addr = alloca ptr, align 8
  %s.indirect_addr = alloca ptr, align 8
  store ptr %this, ptr %this.addr, align 8
  store ptr %s, ptr %s.indirect_addr, align 8
  %this1 = load ptr, ptr %this.addr, align 8
  %fStr = getelementptr inbounds %"struct.icu_75::SPUString", ptr %this1, i32 0, i32 0
  call void @_ZN6icu_7512LocalPointerINS_13UnicodeStringEEC2EPS1_(ptr noundef nonnull align 8 dereferenceable(8) %fStr, ptr noundef null)
  %fStr2 = getelementptr inbounds %"struct.icu_75::SPUString", ptr %this1, i32 0, i32 0
  %call = call noundef nonnull align 8 dereferenceable(8) ptr @_ZN6icu_7512LocalPointerINS_13UnicodeStringEEaSEOS2_(ptr noundef nonnull align 8 dereferenceable(8) %fStr2, ptr noundef nonnull align 8 dereferenceable(8) %s) #6
  %fCharOrStrTableIndex = getelementptr inbounds %"struct.icu_75::SPUString", ptr %this1, i32 0, i32 1
  store i32 0, ptr %fCharOrStrTableIndex, align 8
  ret void
}