; Function Attrs: mustprogress nofree norecurse nosync nounwind willreturn memory(argmem: readwrite) uwtable
define void @_ZN6icu_759SPUStringC2ENS_12LocalPointerINS_13UnicodeStringEEE(ptr nocapture noundef nonnull writeonly align 8 dereferenceable(12) %this, ptr nocapture noundef %s) unnamed_addr #0 align 2 {
_ZN6icu_7512LocalPointerINS_13UnicodeStringEEaSEOS2_.exit:
  store ptr null, ptr %this, align 8
  %0 = load ptr, ptr %s, align 8
  store ptr %0, ptr %this, align 8
  store ptr null, ptr %s, align 8
  %fCharOrStrTableIndex = getelementptr inbounds i8, ptr %this, i64 8
  store i32 0, ptr %fCharOrStrTableIndex, align 8
  ret void
}